#include <math.h>
#include <stdio.h>
#include <stdlib.h>
#include <string.h>

int main()
{ int t1,t2,t3,t4,t5,t6,t7,t8,t9,t10,t11,t12,w;
  scanf("%d",&w);
  if ((12%7+w)%7==5) printf("1\n");
  
  t2=(31%7+w)%7;//printf("%d",t2);
  if ((12%7+t2)%7==5) printf ("2\n");
  
  t3=(28%7+t2)%7;
  if ((12%7+t3)%7==5) printf ("3\n");
  
  t4=(31%7+t3)%7;
  if ((12%7+t4)%7==5) printf ("4\n");
  
  t5=(30%7+t4)%7;
  if ((12%7+t5)%7==5) printf ("5\n");
  
  t6=(31%7+t5)%7;
  if ((12%7+t6)%7==5) printf ("6\n");
  
  t7=(30%7+t6)%7;
  if ((12%7+t7)%7==5) printf ("7\n");
  
  t8=(31%7+t7)%7;
  if ((12%7+t8)%7==5) printf ("8\n");
  
  t9=(31%7+t8)%7;
  if ((12%7+t9)%7==5) printf ("9\n");
  
  t10=(30%7+t9)%7;
  if ((12%7+t10)%7==5) printf ("10\n");
 
  t11=(31%7+t10)%7;
  if ((12%7+t11)%7==5) printf ("11\n");
  
  t12=(30%7+t11)%7;
  if ((12%7+t12)%7==5) printf ("12\n");
  
  
  return 0;

}